target datalayout = "e-m:e-p270:32:32-p271:32:32-p272:64:64-i64:64-i128:128-f80:128-n8:16:32:64-S128"
target triple = "x86_64-pc-linux-gnu"

%"class.icu_77::MaybeStackArray" = type <{ ptr, i32, i8, [40 x i8], [3 x i8] }>
%"class.icu_77::CharString" = type { %"class.icu_77::MaybeStackArray", i32, [4 x i8] }
%"class.icu_77::StringPiece" = type <{ ptr, i32, [4 x i8] }>

@.str.2 = private unnamed_addr constant [16 x i8] c"NumberElements/\00", align 1
@.str.3 = private unnamed_addr constant [15 x i8] c"/patternsShort\00", align 1
@.str.4 = private unnamed_addr constant [14 x i8] c"/patternsLong\00", align 1
@.str.5 = private unnamed_addr constant [15 x i8] c"/decimalFormat\00", align 1
@.str.6 = private unnamed_addr constant [16 x i8] c"/currencyFormat\00", align 1

; Function Attrs: mustprogress nounwind uwtable
define linkonce_odr noundef i32 @_ZNK6icu_7711StringPiece6lengthEv(ptr noundef nonnull align 8 dereferenceable(12) %0) #0 comdat align 2 {
  %2 = alloca ptr, align 8
  store ptr %0, ptr %2, align 8, !tbaa !181
  %3 = load ptr, ptr %2, align 8
  %4 = getelementptr inbounds nuw %"class.icu_77::StringPiece", ptr %3, i32 0, i32 1
  %5 = load i32, ptr %4, align 8, !tbaa !185
  ret i32 %5
}

; Function Attrs: mustprogress nounwind uwtable
define linkonce_odr noundef ptr @_ZNK6icu_7711StringPiece4dataEv(ptr noundef nonnull align 8 dereferenceable(12) %0) #0 comdat align 2 {
  %2 = alloca ptr, align 8
  store ptr %0, ptr %2, align 8, !tbaa !181
  %3 = load ptr, ptr %2, align 8
  %4 = getelementptr inbounds nuw %"class.icu_77::StringPiece", ptr %3, i32 0, i32 0
  %5 = load ptr, ptr %4, align 8, !tbaa !183
  ret ptr %5
}

; Function Attrs: mustprogress nounwind uwtable
define weak_odr noundef nonnull align 1 dereferenceable(1) ptr @_ZN6icu_7715MaybeStackArrayIcLi40EEixEl(ptr noundef nonnull align 8 dereferenceable(53) %0, i64 noundef %1) #0 comdat align 2 {
  %3 = alloca ptr, align 8
  %4 = alloca i64, align 8
  store ptr %0, ptr %3, align 8, !tbaa !3
  store i64 %1, ptr %4, align 8, !tbaa !18
  %5 = load ptr, ptr %3, align 8
  %6 = getelementptr inbounds nuw %"class.icu_77::MaybeStackArray", ptr %5, i32 0, i32 0
  %7 = load ptr, ptr %6, align 8, !tbaa !8
  %8 = load i64, ptr %4, align 8, !tbaa !18
  %9 = getelementptr inbounds i8, ptr %7, i64 %8
  ret ptr %9
}

; Function Attrs: mustprogress uwtable
define linkonce_odr noundef nonnull align 8 dereferenceable(60) ptr @_ZN6icu_7710CharString6appendENS_11StringPieceER10UErrorCode(ptr noundef nonnull align 8 dereferenceable(60) %0, ptr %1, i32 %2, ptr noundef nonnull align 4 dereferenceable(4) %3) #1 comdat align 2 {
  %5 = alloca %"class.icu_77::StringPiece", align 8
  %6 = alloca ptr, align 8
  %7 = alloca ptr, align 8
  %8 = getelementptr inbounds nuw { ptr, i32 }, ptr %5, i32 0, i32 0
  store ptr %1, ptr %8, align 8
  %9 = getelementptr inbounds nuw { ptr, i32 }, ptr %5, i32 0, i32 1
  store i32 %2, ptr %9, align 8
  store ptr %0, ptr %6, align 8, !tbaa !52
  store ptr %3, ptr %7, align 8, !tbaa !22
  %10 = load ptr, ptr %6, align 8
  %11 = call noundef ptr @_ZNK6icu_7711StringPiece4dataEv(ptr noundef nonnull align 8 dereferenceable(12) %5)
  %12 = call noundef i32 @_ZNK6icu_7711StringPiece6lengthEv(ptr noundef nonnull align 8 dereferenceable(12) %5)
  %13 = load ptr, ptr %7, align 8, !tbaa !22
  %14 = call noundef nonnull align 8 dereferenceable(60) ptr @_ZN6icu_7710CharString6appendEPKciR10UErrorCode(ptr noundef nonnull align 8 dereferenceable(60) %10, ptr noundef %11, i32 noundef %12, ptr noundef nonnull align 4 dereferenceable(4) %13)
  ret ptr %14
}

; Function Attrs: mustprogress nounwind uwtable
define linkonce_odr noundef nonnull align 8 dereferenceable(60) ptr @_ZN6icu_7710CharString5clearEv(ptr noundef nonnull align 8 dereferenceable(60) %0) #0 comdat align 2 {
  %2 = alloca ptr, align 8
  store ptr %0, ptr %2, align 8, !tbaa !52
  %3 = load ptr, ptr %2, align 8
  %4 = getelementptr inbounds nuw %"class.icu_77::CharString", ptr %3, i32 0, i32 1
  store i32 0, ptr %4, align 8, !tbaa !54
  %5 = getelementptr inbounds nuw %"class.icu_77::CharString", ptr %3, i32 0, i32 0
  %6 = call noundef nonnull align 1 dereferenceable(1) ptr @_ZN6icu_7715MaybeStackArrayIcLi40EEixEl(ptr noundef nonnull align 8 dereferenceable(53) %5, i64 noundef 0)
  store i8 0, ptr %6, align 1, !tbaa !56
  ret ptr %3
}

; Function Attrs: mustprogress uwtable
define internal void @_ZN12_GLOBAL__N_120getResourceBundleKeyEPKc19UNumberCompactStyleN6icu_776number4impl11CompactTypeERNS3_10CharStringER10UErrorCode(ptr noundef %0, i32 noundef %1, i32 noundef %2, ptr noundef nonnull align 8 dereferenceable(60) %3, ptr noundef nonnull align 4 dereferenceable(4) %4) #1 {
  %6 = alloca ptr, align 8
  %7 = alloca i32, align 4
  %8 = alloca i32, align 4
  %9 = alloca ptr, align 8
  %10 = alloca ptr, align 8
  %11 = alloca %"class.icu_77::StringPiece", align 8
  %12 = alloca %"class.icu_77::StringPiece", align 8
  %13 = alloca %"class.icu_77::StringPiece", align 8
  %14 = alloca %"class.icu_77::StringPiece", align 8
  store ptr %0, ptr %6, align 8, !tbaa !17
  store i32 %1, ptr %7, align 4, !tbaa !35
  store i32 %2, ptr %8, align 4, !tbaa !37
  store ptr %3, ptr %9, align 8, !tbaa !52
  store ptr %4, ptr %10, align 8, !tbaa !22
  %15 = load ptr, ptr %9, align 8, !tbaa !52
  %16 = call noundef nonnull align 8 dereferenceable(60) ptr @_ZN6icu_7710CharString5clearEv(ptr noundef nonnull align 8 dereferenceable(60) %15)
  %17 = load ptr, ptr %9, align 8, !tbaa !52
  call void @_ZN6icu_7711StringPieceC1EPKc(ptr noundef nonnull align 8 dereferenceable(12) %11, ptr noundef @.str.2)
  %18 = load ptr, ptr %10, align 8, !tbaa !22
  %19 = getelementptr inbounds nuw { ptr, i32 }, ptr %11, i32 0, i32 0
  %20 = load ptr, ptr %19, align 8
  %21 = getelementptr inbounds nuw { ptr, i32 }, ptr %11, i32 0, i32 1
  %22 = load i32, ptr %21, align 8
  %23 = call noundef nonnull align 8 dereferenceable(60) ptr @_ZN6icu_7710CharString6appendENS_11StringPieceER10UErrorCode(ptr noundef nonnull align 8 dereferenceable(60) %17, ptr %20, i32 %22, ptr noundef nonnull align 4 dereferenceable(4) %18)
  %24 = load ptr, ptr %9, align 8, !tbaa !52
  %25 = load ptr, ptr %6, align 8, !tbaa !17
  call void @_ZN6icu_7711StringPieceC1EPKc(ptr noundef nonnull align 8 dereferenceable(12) %12, ptr noundef %25)
  %26 = load ptr, ptr %10, align 8, !tbaa !22
  %27 = getelementptr inbounds nuw { ptr, i32 }, ptr %12, i32 0, i32 0
  %28 = load ptr, ptr %27, align 8
  %29 = getelementptr inbounds nuw { ptr, i32 }, ptr %12, i32 0, i32 1
  %30 = load i32, ptr %29, align 8
  %31 = call noundef nonnull align 8 dereferenceable(60) ptr @_ZN6icu_7710CharString6appendENS_11StringPieceER10UErrorCode(ptr noundef nonnull align 8 dereferenceable(60) %24, ptr %28, i32 %30, ptr noundef nonnull align 4 dereferenceable(4) %26)
  %32 = load ptr, ptr %9, align 8, !tbaa !52
  %33 = load i32, ptr %7, align 4, !tbaa !35
  %34 = icmp eq i32 %33, 0
  %35 = select i1 %34, ptr @.str.3, ptr @.str.4
  call void @_ZN6icu_7711StringPieceC1EPKc(ptr noundef nonnull align 8 dereferenceable(12) %13, ptr noundef %35)
  %36 = load ptr, ptr %10, align 8, !tbaa !22
  %37 = getelementptr inbounds nuw { ptr, i32 }, ptr %13, i32 0, i32 0
  %38 = load ptr, ptr %37, align 8
  %39 = getelementptr inbounds nuw { ptr, i32 }, ptr %13, i32 0, i32 1
  %40 = load i32, ptr %39, align 8
  %41 = call noundef nonnull align 8 dereferenceable(60) ptr @_ZN6icu_7710CharString6appendENS_11StringPieceER10UErrorCode(ptr noundef nonnull align 8 dereferenceable(60) %32, ptr %38, i32 %40, ptr noundef nonnull align 4 dereferenceable(4) %36)
  %42 = load ptr, ptr %9, align 8, !tbaa !52
  %43 = load i32, ptr %8, align 4, !tbaa !37
  %44 = icmp eq i32 %43, 0
  %45 = select i1 %44, ptr @.str.5, ptr @.str.6
  call void @_ZN6icu_7711StringPieceC1EPKc(ptr noundef nonnull align 8 dereferenceable(12) %14, ptr noundef %45)
  %46 = load ptr, ptr %10, align 8, !tbaa !22
  %47 = getelementptr inbounds nuw { ptr, i32 }, ptr %14, i32 0, i32 0
  %48 = load ptr, ptr %47, align 8
  %49 = getelementptr inbounds nuw { ptr, i32 }, ptr %14, i32 0, i32 1
  %50 = load i32, ptr %49, align 8
  %51 = call noundef nonnull align 8 dereferenceable(60) ptr @_ZN6icu_7710CharString6appendENS_11StringPieceER10UErrorCode(ptr noundef nonnull align 8 dereferenceable(60) %42, ptr %48, i32 %50, ptr noundef nonnull align 4 dereferenceable(4) %46)
  ret void
}