; Function Attrs: mustprogress uwtable
define internal fastcc void @_ZN12_GLOBAL__N_120getResourceBundleKeyEPKc19UNumberCompactStyleN6icu_776number4impl11CompactTypeERNS3_10CharStringER10UErrorCode(ptr noundef %0, i32 noundef %1, i32 noundef %2, ptr noundef nonnull align 8 dereferenceable(60) initializes((56, 60)) %3, ptr noundef nonnull align 4 dereferenceable(4) %4) unnamed_addr #1 {
  %6 = alloca %"class.icu_77::StringPiece", align 8
  %7 = alloca %"class.icu_77::StringPiece", align 8
  %8 = alloca %"class.icu_77::StringPiece", align 8
  %9 = alloca %"class.icu_77::StringPiece", align 8
  %10 = getelementptr inbounds nuw i8, ptr %3, i64 56
  store i32 0, ptr %10, align 8, !tbaa !28
  %11 = load ptr, ptr %3, align 8, !tbaa !3
  store i8 0, ptr %11, align 1, !tbaa !30
  call void @_ZN6icu_7711StringPieceC1EPKc(ptr noundef nonnull align 8 dereferenceable(12) %6, ptr noundef nonnull @.str.2)
  %12 = load ptr, ptr %6, align 8
  %13 = getelementptr inbounds nuw i8, ptr %6, i64 8
  %14 = load i32, ptr %13, align 8
  %15 = call noundef nonnull align 8 dereferenceable(60) ptr @_ZN6icu_7710CharString6appendEPKciR10UErrorCode(ptr noundef nonnull align 8 dereferenceable(60) %3, ptr noundef %12, i32 noundef %14, ptr noundef nonnull align 4 dereferenceable(4) %4)
  call void @_ZN6icu_7711StringPieceC1EPKc(ptr noundef nonnull align 8 dereferenceable(12) %7, ptr noundef %0)
  %16 = load ptr, ptr %7, align 8
  %17 = getelementptr inbounds nuw i8, ptr %7, i64 8
  %18 = load i32, ptr %17, align 8
  %19 = call noundef nonnull align 8 dereferenceable(60) ptr @_ZN6icu_7710CharString6appendEPKciR10UErrorCode(ptr noundef nonnull align 8 dereferenceable(60) %3, ptr noundef %16, i32 noundef %18, ptr noundef nonnull align 4 dereferenceable(4) %4)
  %20 = icmp eq i32 %1, 0
  %21 = select i1 %20, ptr @.str.3, ptr @.str.4
  call void @_ZN6icu_7711StringPieceC1EPKc(ptr noundef nonnull align 8 dereferenceable(12) %8, ptr noundef nonnull %21)
  %22 = load ptr, ptr %8, align 8
  %23 = getelementptr inbounds nuw i8, ptr %8, i64 8
  %24 = load i32, ptr %23, align 8
  %25 = call noundef nonnull align 8 dereferenceable(60) ptr @_ZN6icu_7710CharString6appendEPKciR10UErrorCode(ptr noundef nonnull align 8 dereferenceable(60) %3, ptr noundef %22, i32 noundef %24, ptr noundef nonnull align 4 dereferenceable(4) %4)
  %26 = icmp eq i32 %2, 0
  %27 = select i1 %26, ptr @.str.5, ptr @.str.6
  call void @_ZN6icu_7711StringPieceC1EPKc(ptr noundef nonnull align 8 dereferenceable(12) %9, ptr noundef nonnull %27)
  %28 = load ptr, ptr %9, align 8
  %29 = getelementptr inbounds nuw i8, ptr %9, i64 8
  %30 = load i32, ptr %29, align 8
  %31 = call noundef nonnull align 8 dereferenceable(60) ptr @_ZN6icu_7710CharString6appendEPKciR10UErrorCode(ptr noundef nonnull align 8 dereferenceable(60) %3, ptr noundef %28, i32 noundef %30, ptr noundef nonnull align 4 dereferenceable(4) %4)
  ret void
}